; Function Attrs: mustprogress uwtable
define noundef ptr @_Z32grpc_security_connector_from_argPK8grpc_arg(ptr noundef %0) local_unnamed_addr #4 personality ptr @__gxx_personality_v0 {
  %2 = alloca %"class.absl::lts_20240722::log_internal::LogMessage", align 8
  %3 = getelementptr inbounds nuw i8, ptr %0, i64 8
  %4 = load ptr, ptr %3, align 8, !tbaa !30
  %5 = tail call i32 @strcmp(ptr noundef nonnull dereferenceable(1) %4, ptr noundef nonnull dereferenceable(33) @.str.5) #29
  %.not = icmp eq i32 %5, 0
  br i1 %.not, label %6, label %16

6:                                                ; preds = %1
  %7 = load i32, ptr %0, align 8, !tbaa !33
  %.not6 = icmp eq i32 %7, 2
  br i1 %.not6, label %13, label %8

8:                                                ; preds = %6
  call void @llvm.lifetime.start.p0(i64 16, ptr nonnull %2) #26
  call void @_ZN4absl12lts_2024072212log_internal10LogMessageC1EPKciNS2_8ErrorTagE(ptr noundef nonnull align 8 dereferenceable(16) %2, ptr noundef nonnull @.str.1, i32 noundef 106) #27
  invoke void @_ZN4absl12lts_2024072212log_internal10LogMessage19CopyToEncodedBufferILNS2_10StringTypeE0EEEvSt17basic_string_viewIcSt11char_traitsIcEE(ptr noundef nonnull align 8 dereferenceable(16) %2, i64 13, ptr nonnull @.str.6)
          to label %_ZN4absl12lts_2024072212log_internal10LogMessagelsILi14EEERS2_RAT__Kc.exit unwind label %11

_ZN4absl12lts_2024072212log_internal10LogMessagelsILi14EEERS2_RAT__Kc.exit: ; preds = %8
  %9 = invoke noundef nonnull align 8 dereferenceable(16) ptr @_ZN4absl12lts_2024072212log_internal10LogMessagelsI13grpc_arg_typeTnNSt9enable_ifIXntsr4absl16HasAbslStringifyIT_EE5valueEiE4typeELi0EEERS2_RKS6_(ptr noundef nonnull align 8 dereferenceable(16) %2, ptr noundef nonnull align 4 dereferenceable(4) %0)
          to label %10 unwind label %11

10:                                               ; preds = %_ZN4absl12lts_2024072212log_internal10LogMessagelsILi14EEERS2_RAT__Kc.exit
  invoke void @_ZN4absl12lts_2024072212log_internal10LogMessage19CopyToEncodedBufferILNS2_10StringTypeE0EEEvSt17basic_string_viewIcSt11char_traitsIcEE(ptr noundef nonnull align 8 dereferenceable(16) %9, i64 9, ptr nonnull @.str.7)
          to label %_ZN4absl12lts_2024072212log_internal10LogMessagelsILi10EEERS2_RAT__Kc.exit unwind label %11

_ZN4absl12lts_2024072212log_internal10LogMessagelsILi10EEERS2_RAT__Kc.exit: ; preds = %10
  invoke void @_ZN4absl12lts_2024072212log_internal10LogMessage19CopyToEncodedBufferILNS2_10StringTypeE0EEEvSt17basic_string_viewIcSt11char_traitsIcEE(ptr noundef nonnull align 8 dereferenceable(16) %9, i64 32, ptr nonnull @.str.5)
          to label %_ZN4absl12lts_2024072212log_internal10LogMessagelsILi33EEERS2_RAT__Kc.exit unwind label %11

_ZN4absl12lts_2024072212log_internal10LogMessagelsILi33EEERS2_RAT__Kc.exit: ; preds = %_ZN4absl12lts_2024072212log_internal10LogMessagelsILi10EEERS2_RAT__Kc.exit
  call void @_ZN4absl12lts_2024072212log_internal10LogMessageD1Ev(ptr noundef nonnull align 8 dereferenceable(16) %2) #30
  call void @llvm.lifetime.end.p0(i64 16, ptr nonnull %2) #26
  br label %16

11:                                               ; preds = %_ZN4absl12lts_2024072212log_internal10LogMessagelsILi10EEERS2_RAT__Kc.exit, %10, %8, %_ZN4absl12lts_2024072212log_internal10LogMessagelsILi14EEERS2_RAT__Kc.exit
  %12 = landingpad { ptr, i32 }
          cleanup
  call void @_ZN4absl12lts_2024072212log_internal10LogMessageD1Ev(ptr noundef nonnull align 8 dereferenceable(16) %2) #30
  call void @llvm.lifetime.end.p0(i64 16, ptr nonnull %2) #26
  resume { ptr, i32 } %12

13:                                               ; preds = %6
  %14 = getelementptr inbounds nuw i8, ptr %0, i64 16
  %15 = load ptr, ptr %14, align 8, !tbaa !34
  br label %16

16:                                               ; preds = %1, %13, %_ZN4absl12lts_2024072212log_internal10LogMessagelsILi33EEERS2_RAT__Kc.exit
  %.0 = phi ptr [ null, %_ZN4absl12lts_2024072212log_internal10LogMessagelsILi33EEERS2_RAT__Kc.exit ], [ %15, %13 ], [ null, %1 ]
  ret ptr %.0
}